target datalayout = "e-m:e-p270:32:32-p271:32:32-p272:64:64-i64:64-i128:128-f80:128-n8:16:32:64-S128"
target triple = "x86_64-pc-linux-gnu"

%struct.trace_malloc_data = type { ptr }
%struct.JSMallocState = type { i64, i64, i64, ptr }
%struct.__va_list_tag = type { i32, i32, ptr, ptr }

@stdout = external global ptr, align 8
@.str.31 = private unnamed_addr constant [5 x i8] c"NULL\00", align 1
@.str.32 = private unnamed_addr constant [13 x i8] c"H%+06lld.%zd\00", align 1
@.str.33 = private unnamed_addr constant [4 x i8] c"%zd\00", align 1

; Function Attrs: nounwind uwtable
define internal i64 @js_trace_malloc_usable_size(ptr noundef %0) #0 {
  %2 = alloca ptr, align 8
  store ptr %0, ptr %2, align 8
  %3 = load ptr, ptr %2, align 8
  %4 = call i64 @malloc_usable_size(ptr noundef %3) #12
  ret i64 %4
}

; Function Attrs: nounwind uwtable
define internal i64 @js_trace_malloc_ptr_offset(ptr noundef %0, ptr noundef %1) #0 {
  %3 = alloca ptr, align 8
  %4 = alloca ptr, align 8
  store ptr %0, ptr %3, align 8
  store ptr %1, ptr %4, align 8
  %5 = load ptr, ptr %3, align 8
  %6 = load ptr, ptr %4, align 8
  %7 = getelementptr inbounds %struct.trace_malloc_data, ptr %6, i32 0, i32 0
  %8 = load ptr, ptr %7, align 8
  %9 = ptrtoint ptr %5 to i64
  %10 = ptrtoint ptr %8 to i64
  %11 = sub i64 %9, %10
  ret i64 %11
}

; Function Attrs: nounwind uwtable
define internal void @js_trace_malloc_printf(ptr noundef %0, ptr noundef %1, ...) #0 {
  %3 = alloca ptr, align 8
  %4 = alloca ptr, align 8
  %5 = alloca [1 x %struct.__va_list_tag], align 16
  %6 = alloca i32, align 4
  %7 = alloca ptr, align 8
  %8 = alloca i64, align 8
  store ptr %0, ptr %3, align 8
  store ptr %1, ptr %4, align 8
  %9 = getelementptr inbounds [1 x %struct.__va_list_tag], ptr %5, i64 0, i64 0
  call void @llvm.va_start(ptr %9)
  br label %10

10:                                               ; preds = %91, %83, %54, %2
  %11 = load ptr, ptr %4, align 8
  %12 = getelementptr i8, ptr %11, i32 1
  store ptr %12, ptr %4, align 8
  %13 = load i8, ptr %11, align 1
  %14 = zext i8 %13 to i32
  store i32 %14, ptr %6, align 4
  %15 = icmp ne i32 %14, 0
  br i1 %15, label %16, label %95

16:                                               ; preds = %10
  %17 = load i32, ptr %6, align 4
  %18 = icmp eq i32 %17, 37
  br i1 %18, label %19, label %91

19:                                               ; preds = %16
  %20 = load ptr, ptr %4, align 8
  %21 = load i8, ptr %20, align 1
  %22 = zext i8 %21 to i32
  %23 = icmp eq i32 %22, 112
  br i1 %23, label %24, label %57

24:                                               ; preds = %19
  %25 = getelementptr inbounds [1 x %struct.__va_list_tag], ptr %5, i64 0, i64 0
  %26 = getelementptr inbounds %struct.__va_list_tag, ptr %25, i32 0, i32 0
  %27 = load i32, ptr %26, align 16
  %28 = icmp ule i32 %27, 40
  br i1 %28, label %29, label %34

29:                                               ; preds = %24
  %30 = getelementptr inbounds %struct.__va_list_tag, ptr %25, i32 0, i32 3
  %31 = load ptr, ptr %30, align 16
  %32 = getelementptr i8, ptr %31, i32 %27
  %33 = add i32 %27, 8
  store i32 %33, ptr %26, align 16
  br label %38

34:                                               ; preds = %24
  %35 = getelementptr inbounds %struct.__va_list_tag, ptr %25, i32 0, i32 2
  %36 = load ptr, ptr %35, align 8
  %37 = getelementptr i8, ptr %36, i32 8
  store ptr %37, ptr %35, align 8
  br label %38

38:                                               ; preds = %34, %29
  %39 = phi ptr [ %32, %29 ], [ %36, %34 ]
  %40 = load ptr, ptr %39, align 8
  store ptr %40, ptr %7, align 8
  %41 = load ptr, ptr %7, align 8
  %42 = icmp eq ptr %41, null
  br i1 %42, label %43, label %45

43:                                               ; preds = %38
  %44 = call i32 (ptr, ...) @printf(ptr noundef @.str.31)
  br label %54

45:                                               ; preds = %38
  %46 = load ptr, ptr %7, align 8
  %47 = load ptr, ptr %3, align 8
  %48 = getelementptr inbounds %struct.JSMallocState, ptr %47, i32 0, i32 3
  %49 = load ptr, ptr %48, align 8
  %50 = call i64 @js_trace_malloc_ptr_offset(ptr noundef %46, ptr noundef %49)
  %51 = load ptr, ptr %7, align 8
  %52 = call i64 @js_trace_malloc_usable_size(ptr noundef %51)
  %53 = call i32 (ptr, ...) @printf(ptr noundef @.str.32, i64 noundef %50, i64 noundef %52)
  br label %54

54:                                               ; preds = %45, %43
  %55 = load ptr, ptr %4, align 8
  %56 = getelementptr i8, ptr %55, i32 1
  store ptr %56, ptr %4, align 8
  br label %10, !llvm.loop !13

57:                                               ; preds = %19
  %58 = load ptr, ptr %4, align 8
  %59 = getelementptr i8, ptr %58, i64 0
  %60 = load i8, ptr %59, align 1
  %61 = zext i8 %60 to i32
  %62 = icmp eq i32 %61, 122
  br i1 %62, label %63, label %90

63:                                               ; preds = %57
  %64 = load ptr, ptr %4, align 8
  %65 = getelementptr i8, ptr %64, i64 1
  %66 = load i8, ptr %65, align 1
  %67 = zext i8 %66 to i32
  %68 = icmp eq i32 %67, 100
  br i1 %68, label %69, label %90

69:                                               ; preds = %63
  %70 = getelementptr inbounds [1 x %struct.__va_list_tag], ptr %5, i64 0, i64 0
  %71 = getelementptr inbounds %struct.__va_list_tag, ptr %70, i32 0, i32 0
  %72 = load i32, ptr %71, align 16
  %73 = icmp ule i32 %72, 40
  br i1 %73, label %74, label %79

74:                                               ; preds = %69
  %75 = getelementptr inbounds %struct.__va_list_tag, ptr %70, i32 0, i32 3
  %76 = load ptr, ptr %75, align 16
  %77 = getelementptr i8, ptr %76, i32 %72
  %78 = add i32 %72, 8
  store i32 %78, ptr %71, align 16
  br label %83

79:                                               ; preds = %69
  %80 = getelementptr inbounds %struct.__va_list_tag, ptr %70, i32 0, i32 2
  %81 = load ptr, ptr %80, align 8
  %82 = getelementptr i8, ptr %81, i32 8
  store ptr %82, ptr %80, align 8
  br label %83

83:                                               ; preds = %79, %74
  %84 = phi ptr [ %77, %74 ], [ %81, %79 ]
  %85 = load i64, ptr %84, align 8
  store i64 %85, ptr %8, align 8
  %86 = load i64, ptr %8, align 8
  %87 = call i32 (ptr, ...) @printf(ptr noundef @.str.33, i64 noundef %86)
  %88 = load ptr, ptr %4, align 8
  %89 = getelementptr i8, ptr %88, i64 2
  store ptr %89, ptr %4, align 8
  br label %10, !llvm.loop !13

90:                                               ; preds = %63, %57
  br label %91

91:                                               ; preds = %90, %16
  %92 = load i32, ptr %6, align 4
  %93 = load ptr, ptr @stdout, align 8
  %94 = call i32 @putc(i32 noundef %92, ptr noundef %93)
  br label %10, !llvm.loop !13

95:                                               ; preds = %10
  %96 = getelementptr inbounds [1 x %struct.__va_list_tag], ptr %5, i64 0, i64 0
  call void @llvm.va_end(ptr %96)
  ret void
}