; Function Attrs: nounwind uwtable
define internal void @js_trace_malloc_printf(ptr nocapture noundef readonly %0, ptr nocapture noundef readonly %1, ...) unnamed_addr #3 {
  %3 = alloca [1 x %struct.__va_list_tag], align 16
  call void @llvm.va_start(ptr nonnull %3)
  %4 = getelementptr inbounds i8, ptr %3, i64 8
  %5 = getelementptr inbounds i8, ptr %3, i64 16
  %6 = getelementptr inbounds i8, ptr %0, i64 24
  br label %.backedge

.backedge:                                        ; preds = %.backedge.backedge, %2
  %.0 = phi ptr [ %1, %2 ], [ %.0.be, %.backedge.backedge ]
  %7 = getelementptr i8, ptr %.0, i64 1
  %8 = load i8, ptr %.0, align 1
  %9 = zext i8 %8 to i32
  switch i8 %8, label %58 [
    i8 0, label %61
    i8 37, label %10
  ]

10:                                               ; preds = %.backedge
  %11 = load i8, ptr %7, align 1
  switch i8 %11, label %58 [
    i8 112, label %12
    i8 122, label %38
  ]

12:                                               ; preds = %10
  %13 = load i32, ptr %3, align 16
  %14 = icmp ult i32 %13, 41
  br i1 %14, label %15, label %20

15:                                               ; preds = %12
  %16 = load ptr, ptr %5, align 16
  %17 = zext nneg i32 %13 to i64
  %18 = getelementptr i8, ptr %16, i64 %17
  %19 = add nuw nsw i32 %13, 8
  store i32 %19, ptr %3, align 16
  br label %23

20:                                               ; preds = %12
  %21 = load ptr, ptr %4, align 8
  %22 = getelementptr i8, ptr %21, i64 8
  store ptr %22, ptr %4, align 8
  br label %23

23:                                               ; preds = %20, %15
  %24 = phi ptr [ %18, %15 ], [ %21, %20 ]
  %25 = load ptr, ptr %24, align 8
  %26 = icmp eq ptr %25, null
  br i1 %26, label %27, label %29

27:                                               ; preds = %23
  %28 = call i32 (ptr, ...) @printf(ptr noundef nonnull dereferenceable(1) @.str.31)
  br label %36

29:                                               ; preds = %23
  %30 = load ptr, ptr %6, align 8
  %.val = load ptr, ptr %30, align 8
  %31 = ptrtoint ptr %25 to i64
  %32 = ptrtoint ptr %.val to i64
  %33 = sub i64 %31, %32
  %34 = call i64 @malloc_usable_size(ptr noundef nonnull %25) #16
  %35 = call i32 (ptr, ...) @printf(ptr noundef nonnull dereferenceable(1) @.str.32, i64 noundef %33, i64 noundef %34)
  br label %36

36:                                               ; preds = %29, %27
  %37 = getelementptr i8, ptr %.0, i64 2
  br label %.backedge.backedge

.backedge.backedge:                               ; preds = %36, %53, %58
  %.0.be = phi ptr [ %37, %36 ], [ %57, %53 ], [ %7, %58 ]
  br label %.backedge, !llvm.loop !14

38:                                               ; preds = %10
  %39 = getelementptr i8, ptr %.0, i64 2
  %40 = load i8, ptr %39, align 1
  %41 = icmp eq i8 %40, 100
  br i1 %41, label %42, label %58

42:                                               ; preds = %38
  %43 = load i32, ptr %3, align 16
  %44 = icmp ult i32 %43, 41
  br i1 %44, label %45, label %50

45:                                               ; preds = %42
  %46 = load ptr, ptr %5, align 16
  %47 = zext nneg i32 %43 to i64
  %48 = getelementptr i8, ptr %46, i64 %47
  %49 = add nuw nsw i32 %43, 8
  store i32 %49, ptr %3, align 16
  br label %53

50:                                               ; preds = %42
  %51 = load ptr, ptr %4, align 8
  %52 = getelementptr i8, ptr %51, i64 8
  store ptr %52, ptr %4, align 8
  br label %53

53:                                               ; preds = %50, %45
  %54 = phi ptr [ %48, %45 ], [ %51, %50 ]
  %55 = load i64, ptr %54, align 8
  %56 = call i32 (ptr, ...) @printf(ptr noundef nonnull dereferenceable(1) @.str.33, i64 noundef %55)
  %57 = getelementptr i8, ptr %.0, i64 3
  br label %.backedge.backedge

58:                                               ; preds = %10, %.backedge, %38
  %59 = load ptr, ptr @stdout, align 8
  %60 = call i32 @putc(i32 noundef %9, ptr noundef %59)
  br label %.backedge.backedge

61:                                               ; preds = %.backedge
  call void @llvm.va_end(ptr nonnull %3)
  ret void
}